Certificate:
    Data:
        Version: 3 (0x2)
        Serial Number: 214 (0xd6)
    Signature Algorithm: rsassaPss
         Hash Algorithm: sha256
         Mask Algorithm: mgf1 with sha256
         Salt Length: 0x20
         Trailer Field: 0xBC (default)
        Issuer: C=DE, ST=Deutschland, L=Gr\xC3\xA4fenhainichen, O=RS Utility Service, OU=RS Utility Service Root CertAuth, CN=RS Utility Service Root CertAuth/emailAddress=kontakt@rs-utilityservice.de
        Validity
            Not Before: Mar 17 09:31:40 2020 GMT
            Not After : Mar 17 09:31:40 2023 GMT
        Subject: C=DE, ST=Schleswig-Holstein, L=Mohrkirch, O=Heinrich N. Clausen GmbH & Co. KG, OU=Gesch\xC3\xA4ftsf\xC3\xBChrung, CN=Thomas Friedrich Clausen/emailAddress=edi.vertrieb@heinrich-n-clausen.de
        Subject Public Key Info:
            Public Key Algorithm: rsaEncryption
                Public-Key: (2048 bit)
                Modulus:
                    00:ca:77:0c:70:af:bd:5d:87:f7:af:5f:e5:f1:6a:
                    5f:91:b0:ca:9d:9a:12:dd:25:19:1e:64:49:4e:c3:
                    24:16:21:09:eb:4b:b1:55:9f:5f:35:7f:d0:d8:2e:
                    8b:fc:ea:a2:e5:31:3f:b0:ca:3b:6c:64:50:7e:1f:
                    3b:d0:c5:b9:6a:9f:ae:3b:de:cf:e1:dd:40:04:79:
                    89:44:38:19:cb:90:bb:13:34:5e:ee:69:fe:dc:b3:
                    59:17:43:39:72:4c:db:bc:f0:32:8a:f0:4c:3e:1e:
                    10:26:db:b8:f7:48:13:b8:ec:cd:3a:9e:93:03:05:
                    51:93:fc:4a:f6:17:e6:6d:31:15:4b:a9:3c:83:d6:
                    fd:5d:34:92:f6:93:07:6c:1e:57:fa:ff:30:a2:01:
                    d3:9e:7f:50:da:95:a2:e2:00:91:ef:17:98:16:45:
                    63:a7:04:d2:c1:8d:e1:dd:41:0f:89:0c:51:22:f0:
                    34:dd:1a:d7:ed:af:22:46:14:11:9a:ca:4b:6e:88:
                    b8:17:73:b3:d4:4d:4c:3d:81:cd:9f:d9:b8:d9:dc:
                    15:f0:27:bb:48:bb:62:38:81:ee:ff:47:44:73:3e:
                    f1:c2:45:85:d4:e5:42:f3:f2:8e:8d:ed:3b:d2:be:
                    b1:bb:4d:30:85:50:97:8d:70:e4:d3:c3:8b:61:15:
                    28:31
                Exponent: 65537 (0x10001)
        X509v3 extensions:
            X509v3 Basic Constraints: 
                CA:FALSE
            Netscape Cert Type: 
                SSL Client, S/MIME, Object Signing
            X509v3 Key Usage: 
                Digital Signature, Non Repudiation, Key Encipherment
            Netscape Comment: 
                RS Utility CertAuth
            X509v3 Subject Key Identifier: 
                6A:4F:21:90:1F:83:6D:49:B8:08:9A:22:79:9E:EE:84:E5:ED:F6:49
            X509v3 Authority Key Identifier: 
                keyid:54:7A:30:CA:2C:26:2B:6A:95:9F:52:D8:F5:44:56:9E:55:0B:FD:43

            X509v3 Subject Alternative Name: 
                email:edi.vertrieb@heinrich-n-clausen.de
            Netscape CA Policy Url: 
                http://certauth.rs-utilityservice.de/policy.pdf
            Authority Information Access: 
                OCSP - URI:http://ocsp.rs-utilityservice.de:8889

            X509v3 CRL Distribution Points: 

                Full Name:
                  URI:http://certauth.rs-utilityservice.de/cert-crl.pem

    Signature Algorithm: rsassaPss
         Hash Algorithm: sha256
         Mask Algorithm: mgf1 with sha256
         Salt Length: 0x20
         Trailer Field: 0xBC (default)

         4a:c3:18:35:c4:66:aa:89:be:59:d2:40:6b:0e:55:0d:35:c6:
         2c:71:b6:2d:1a:94:d7:a9:c3:5e:93:f0:7b:02:83:3c:b4:c4:
         3d:95:6c:d2:1d:41:be:03:04:55:5b:7d:14:d4:f0:0f:84:34:
         4b:44:19:2d:65:cf:00:5e:94:6e:0c:b9:21:20:2f:f5:f7:41:
         3d:be:cf:fc:bc:2b:63:32:cc:d7:c0:cc:8b:53:ab:96:5a:3a:
         73:ca:d4:6f:03:e7:81:b9:16:19:47:66:a8:ee:3b:ef:59:ec:
         60:6f:8f:a5:48:1e:92:44:ca:1d:27:12:10:e3:c3:ab:a6:b7:
         cd:de:e8:40:ec:a6:82:03:90:a2:03:24:2e:57:29:ea:85:56:
         f3:13:29:f7:70:9e:52:17:42:63:dc:6d:7b:7f:fe:db:c2:45:
         f2:9f:e5:cd:83:03:aa:d3:33:cb:c5:84:34:32:65:93:c3:5c:
         53:d3:fa:10:a3:e6:7a:f1:87:58:19:4d:a2:10:90:cf:e8:59:
         ed:04:d4:e1:ac:ea:ad:51:c1:50:55:9b:7a:fb:84:83:f8:d5:
         53:eb:17:51:3d:f8:e6:37:5b:b9:a4:d6:c7:f7:96:92:69:b9:
         e3:bc:8e:6e:46:c2:52:85:29:e0:ef:28:a4:43:2c:f2:7e:39:
         45:be:e6:10:12:33:54:2e:b9:81:22:c8:41:18:3b:2c:49:0a:
         c2:9a:2e:b8:7f:31:b3:a8:87:55:a4:98:3e:92:5d:e1:7f:f7:
         c1:fa:81:8e:3d:c3:c5:8c:f8:c0:76:c0:d4:13:85:b5:ea:55:
         40:74:e0:c4:d9:bc:9a:34:98:09:10:58:88:ea:30:a2:1c:5d:
         37:27:20:b0:68:fc:09:77:e9:9d:78:f1:b8:87:0a:b8:ee:4d:
         f8:0a:26:36:4c:9b:6d:6d:c1:04:97:25:22:04:a7:f8:09:3a:
         3a:f0:80:79:50:62:5a:d7:74:82:e7:a6:3d:78:e1:7e:aa:0d:
         4f:75:04:32:a1:71:f1:d8:d8:8d:79:90:a8:79:7b:66:b3:21:
         7a:47:fd:33:6d:8a:8e:72:31:d6:8b:1f:28:e0:a6:c5:f8:55:
         e4:32:d6:1b:fb:58:6c:0b:a3:6f:7e:93:d0:7c:2b:a8:72:3b:
         a8:47:51:b1:11:0e:e4:e6:66:34:13:7b:2d:c2:78:9c:ea:0b:
         67:e7:55:37:47:f7:f7:28:46:51:98:03:c0:58:1d:17:c7:d4:
         bf:2f:b8:11:97:02:11:86:4f:8d:07:90:14:64:67:8a:da:fb:
         47:8e:01:33:ad:e4:05:ad:ca:96:19:3d:81:00:97:c7:f6:d3:
         db:92:e5:36:ea:d0:ce:8b
-----BEGIN CERTIFICATE-----
MIIHJDCCBNygAwIBAgICANYwPQYJKoZIhvcNAQEKMDCgDTALBglghkgBZQMEAgGh
GjAYBgkqhkiG9w0BAQgwCwYJYIZIAWUDBAIBogMCASAwgd4xCzAJBgNVBAYTAkRF
MRQwEgYDVQQIDAtEZXV0c2NobGFuZDEZMBcGA1UEBwwQR3LDpGZlbmhhaW5pY2hl
bjEbMBkGA1UECgwSUlMgVXRpbGl0eSBTZXJ2aWNlMSkwJwYDVQQLDCBSUyBVdGls
aXR5IFNlcnZpY2UgUm9vdCBDZXJ0QXV0aDEpMCcGA1UEAwwgUlMgVXRpbGl0eSBT
ZXJ2aWNlIFJvb3QgQ2VydEF1dGgxKzApBgkqhkiG9w0BCQEWHGtvbnRha3RAcnMt
dXRpbGl0eXNlcnZpY2UuZGUwHhcNMjAwMzE3MDkzMTQwWhcNMjMwMzE3MDkzMTQw
WjCB3TELMAkGA1UEBhMCREUxGzAZBgNVBAgMElNjaGxlc3dpZy1Ib2xzdGVpbjES
MBAGA1UEBwwJTW9ocmtpcmNoMSowKAYDVQQKDCFIZWlucmljaCBOLiBDbGF1c2Vu
IEdtYkggJiBDby4gS0cxGzAZBgNVBAsMEkdlc2Now6RmdHNmw7xocnVuZzEhMB8G
A1UEAwwYVGhvbWFzIEZyaWVkcmljaCBDbGF1c2VuMTEwLwYJKoZIhvcNAQkBFiJl
ZGkudmVydHJpZWJAaGVpbnJpY2gtbi1jbGF1c2VuLmRlMIIBIjANBgkqhkiG9w0B
AQEFAAOCAQ8AMIIBCgKCAQEAyncMcK+9XYf3r1/l8WpfkbDKnZoS3SUZHmRJTsMk
FiEJ60uxVZ9fNX/Q2C6L/Oqi5TE/sMo7bGRQfh870MW5ap+uO97P4d1ABHmJRDgZ
y5C7EzRe7mn+3LNZF0M5ckzbvPAyivBMPh4QJtu490gTuOzNOp6TAwVRk/xK9hfm
bTEVS6k8g9b9XTSS9pMHbB5X+v8wogHTnn9Q2pWi4gCR7xeYFkVjpwTSwY3h3UEP
iQxRIvA03RrX7a8iRhQRmspLboi4F3Oz1E1MPYHNn9m42dwV8Ce7SLtiOIHu/0dE
cz7xwkWF1OVC8/KOje070r6xu00whVCXjXDk08OLYRUoMQIDAQABo4IBiTCCAYUw
CQYDVR0TBAIwADARBglghkgBhvhCAQEEBAMCBLAwCwYDVR0PBAQDAgXgMCIGCWCG
SAGG+EIBDQQVFhNSUyBVdGlsaXR5IENlcnRBdXRoMB0GA1UdDgQWBBRqTyGQH4Nt
SbgImiJ5nu6E5e32STAfBgNVHSMEGDAWgBRUejDKLCYrapWfUtj1RFaeVQv9QzAt
BgNVHREEJjAkgSJlZGkudmVydHJpZWJAaGVpbnJpY2gtbi1jbGF1c2VuLmRlMD4G
CWCGSAGG+EIBCAQxFi9odHRwOi8vY2VydGF1dGgucnMtdXRpbGl0eXNlcnZpY2Uu
ZGUvcG9saWN5LnBkZjBBBggrBgEFBQcBAQQ1MDMwMQYIKwYBBQUHMAGGJWh0dHA6
Ly9vY3NwLnJzLXV0aWxpdHlzZXJ2aWNlLmRlOjg4ODkwQgYDVR0fBDswOTA3oDWg
M4YxaHR0cDovL2NlcnRhdXRoLnJzLXV0aWxpdHlzZXJ2aWNlLmRlL2NlcnQtY3Js
LnBlbTA9BgkqhkiG9w0BAQowMKANMAsGCWCGSAFlAwQCAaEaMBgGCSqGSIb3DQEB
CDALBglghkgBZQMEAgGiAwIBIAOCAgEASsMYNcRmqom+WdJAaw5VDTXGLHG2LRqU
16nDXpPwewKDPLTEPZVs0h1BvgMEVVt9FNTwD4Q0S0QZLWXPAF6Ubgy5ISAv9fdB
Pb7P/LwrYzLM18DMi1Orllo6c8rUbwPngbkWGUdmqO4771nsYG+PpUgekkTKHScS
EOPDq6a3zd7oQOymggOQogMkLlcp6oVW8xMp93CeUhdCY9xte3/+28JF8p/lzYMD
qtMzy8WENDJlk8NcU9P6EKPmevGHWBlNohCQz+hZ7QTU4azqrVHBUFWbevuEg/jV
U+sXUT345jdbuaTWx/eWkmm547yObkbCUoUp4O8opEMs8n45Rb7mEBIzVC65gSLI
QRg7LEkKwpouuH8xs6iHVaSYPpJd4X/3wfqBjj3DxYz4wHbA1BOFtepVQHTgxNm8
mjSYCRBYiOowohxdNycgsGj8CXfpnXjxuIcKuO5N+AomNkybbW3BBJclIgSn+Ak6
OvCAeVBiWtd0guemPXjhfqoNT3UEMqFx8djYjXmQqHl7ZrMhekf9M22KjnIx1osf
KOCmxfhV5DLWG/tYbAujb36T0HwrqHI7qEdRsREO5OZmNBN7LcJ4nOoLZ+dVN0f3
9yhGUZgDwFgdF8fUvy+4EZcCEYZPjQeQFGRnitr7R44BM63kBa3Klhk9gQCXx/bT
25LlNurQzos=
-----END CERTIFICATE-----
